; Function Attrs: mustprogress uwtable
define dso_local void @_ZN16btCollisionWorld23computeOverlappingPairsEv(ptr nocapture noundef nonnull readonly align 8 dereferenceable(121) %this) unnamed_addr #4 align 2 personality ptr @__gxx_personality_v0 {
entry:
  %__profile = alloca %class.CProfileSample, align 1
  call void @_ZN14CProfileSampleC1EPKc(ptr noundef nonnull align 1 dereferenceable(1) %__profile, ptr noundef nonnull @.str.5)
  %m_broadphasePairCache = getelementptr inbounds i8, ptr %this, i64 104
  %0 = load ptr, ptr %m_broadphasePairCache, align 8
  %m_dispatcher1 = getelementptr inbounds i8, ptr %this, i64 40
  %1 = load ptr, ptr %m_dispatcher1, align 8
  %vtable = load ptr, ptr %0, align 8
  %vfn = getelementptr inbounds i8, ptr %vtable, i64 64
  %2 = load ptr, ptr %vfn, align 8
  invoke void %2(ptr noundef nonnull align 8 dereferenceable(8) %0, ptr noundef %1)
          to label %invoke.cont unwind label %lpad

invoke.cont:                                      ; preds = %entry
  call void @_ZN14CProfileSampleD1Ev(ptr noundef nonnull align 1 dereferenceable(1) %__profile) #19
  ret void

lpad:                                             ; preds = %entry
  %3 = landingpad { ptr, i32 }
          cleanup
  call void @_ZN14CProfileSampleD1Ev(ptr noundef nonnull align 1 dereferenceable(1) %__profile) #19
  resume { ptr, i32 } %3
}